target datalayout = "e-m:e-p270:32:32-p271:32:32-p272:64:64-i64:64-i128:128-f80:128-n8:16:32:64-S128"
target triple = "x86_64-unknown-linux-gnu"

%struct.MemoryRegion = type { %struct.Object, i8, i8, i8, i8, i8, i8, i8, i8, i8, i8, ptr, ptr, ptr, ptr, ptr, ptr, i32, i128, i64, ptr, i64, i8, i8, i8, i8, i8, ptr, i64, i32, %union.anon, %union.anon.0, %union.anon.1, ptr, i32, ptr, ptr, i8 }
%struct.Object = type { ptr, ptr, ptr, i32, ptr }
%union.anon = type { %struct.QTailQLink }
%struct.QTailQLink = type { ptr, ptr }
%union.anon.0 = type { %struct.QTailQLink }
%union.anon.1 = type { %struct.QTailQLink }
%struct.PCIVGAState = type { %struct.PCIDevice, %struct.VGACommonState, i32, %struct.qemu_edid_info, %struct.MemoryRegion, [4 x %struct.MemoryRegion], [384 x i8] }
%struct.PCIDevice = type { %struct.DeviceState, i8, i8, ptr, ptr, ptr, ptr, ptr, i32, %struct.PCIReqIDCache, [64 x i8], [7 x %struct.PCIIORegion], %struct.AddressSpace, %struct.MemoryRegion, %struct.MemoryRegion, ptr, ptr, [3 x ptr], i8, i8, i32, i8, i32, ptr, ptr, ptr, ptr, ptr, ptr, %struct.MemoryRegion, %struct.MemoryRegion, %struct.MemoryRegion, ptr, i8, i32, i8, %struct.PCIExpressDevice, ptr, ptr, i32, i8, %struct.MemoryRegion, i32, ptr, ptr, ptr, ptr, ptr, i32 }
%struct.DeviceState = type { %struct.Object, ptr, ptr, i8, i8, i64, ptr, i32, i8, ptr, %struct.NamedGPIOListHead, %struct.NamedClockListHead, %struct.BusStateHead, i32, i32, i32, %struct.ResettableState, ptr, %struct.MemReentrancyGuard }
%struct.NamedGPIOListHead = type { ptr }
%struct.NamedClockListHead = type { ptr }
%struct.BusStateHead = type { ptr }
%struct.ResettableState = type { i32, i8, i8 }
%struct.MemReentrancyGuard = type { i8 }
%struct.PCIReqIDCache = type { ptr, i32 }
%struct.PCIIORegion = type { i64, i64, i8, ptr, ptr }
%struct.AddressSpace = type { %struct.rcu_head, ptr, ptr, ptr, i32, i32, ptr, %union.anon.3, %union.anon.4 }
%struct.rcu_head = type { ptr, ptr }
%union.anon.3 = type { %struct.QTailQLink }
%union.anon.4 = type { %struct.QTailQLink }
%struct.PCIExpressDevice = type { i8, i8, i8, i16, %struct.PCIEAERLog, i16, i16, i16, %struct.PCIESriovPF, %struct.PCIESriovVF }
%struct.PCIEAERLog = type { i16, i16, ptr }
%struct.PCIESriovPF = type { i16, [7 x i8], ptr, ptr }
%struct.PCIESriovVF = type { ptr, i16 }
%struct.VGACommonState = type { ptr, ptr, %struct.MemoryRegion, i32, i32, i32, i32, i32, i8, %struct.MemoryRegion, i8, [256 x i8], [256 x i8], i8, [256 x i8], i8, [21 x i8], i32, i8, [256 x i8], i8, i8, i8, i8, i8, i8, i8, i8, [3 x i8], i32, [768 x i8], i32, ptr, ptr, ptr, %struct.PortioList, %struct.PortioList, i16, [10 x i16], i32, i32, i32, ptr, [2 x i32], i32, i8, i8, i32, i32, i32, i32, i32, i8, i8, i32, i32, i32, i32, i32, i8, i8, i8, i8, i8, i64, i32, ptr, i8, i8, i8, i8, i8, [64 x i32], i32, i32, ptr, ptr, [256 x i32], [16000 x i32], ptr, ptr, %union.vga_retrace, i8 }
%struct.PortioList = type { ptr, ptr, ptr, i32, ptr, ptr, ptr, i8 }
%union.vga_retrace = type { %struct.vga_precise_retrace }
%struct.vga_precise_retrace = type { i64, i64, i32, i32, i32, i32, i32, i32 }
%struct.qemu_edid_info = type { ptr, ptr, ptr, i16, i16, i32, i32, i32, i32, i32 }

@.str.3 = private unnamed_addr constant [8 x i8] c"pci-vga\00", align 1
@.str.4 = private unnamed_addr constant [11 x i8] c"pci-device\00", align 1
@.str.9 = private unnamed_addr constant [106 x i8] c"/home/dtcxzyw/WorkSpace/Projects/compilers/llvm-opt-benchmark/bench/qemu/qemu/include/hw/pci/pci_device.h\00", align 1
@.str.18 = private unnamed_addr constant [29 x i8] c"../qemu/hw/display/vga-pci.c\00", align 1
@__func__.PCI_VGA = private unnamed_addr constant [8 x i8] c"PCI_VGA\00", align 1
@__func__.PCI_DEVICE = private unnamed_addr constant [11 x i8] c"PCI_DEVICE\00", align 1

; Function Attrs: nounwind sspstrong uwtable
define internal ptr @PCI_VGA(ptr noundef %obj) #0 {
entry:
  %obj.addr = alloca ptr, align 8
  store ptr %obj, ptr %obj.addr, align 8
  %0 = load ptr, ptr %obj.addr, align 8
  %call = call ptr @object_dynamic_cast_assert(ptr noundef %0, ptr noundef @.str.3, ptr noundef @.str.18, i32 noundef 58, ptr noundef @__func__.PCI_VGA)
  ret ptr %call
}

; Function Attrs: nounwind sspstrong uwtable
define internal ptr @PCI_DEVICE(ptr noundef %obj) #0 {
entry:
  %obj.addr = alloca ptr, align 8
  store ptr %obj, ptr %obj.addr, align 8
  %0 = load ptr, ptr %obj.addr, align 8
  %call = call ptr @object_dynamic_cast_assert(ptr noundef %0, ptr noundef @.str.4, ptr noundef @.str.9, i32 noundef 10, ptr noundef @__func__.PCI_DEVICE)
  ret ptr %call
}

; Function Attrs: nounwind sspstrong uwtable
define internal void @vga_set_big_endian_fb(ptr noundef %obj, i1 noundef zeroext %value, ptr noundef %errp) #0 {
entry:
  %obj.addr = alloca ptr, align 8
  %value.addr = alloca i8, align 1
  %errp.addr = alloca ptr, align 8
  %d = alloca ptr, align 8
  store ptr %obj, ptr %obj.addr, align 8
  %frombool = zext i1 %value to i8
  store i8 %frombool, ptr %value.addr, align 1
  store ptr %errp, ptr %errp.addr, align 8
  %0 = load ptr, ptr %obj.addr, align 8
  %call = call ptr @PCI_DEVICE(ptr noundef %0)
  %call1 = call ptr @PCI_VGA(ptr noundef %call)
  store ptr %call1, ptr %d, align 8
  %1 = load i8, ptr %value.addr, align 1
  %tobool = trunc i8 %1 to i1
  %2 = load ptr, ptr %d, align 8
  %vga = getelementptr inbounds %struct.PCIVGAState, ptr %2, i32 0, i32 1
  %big_endian_fb = getelementptr inbounds %struct.VGACommonState, ptr %vga, i32 0, i32 69
  %frombool2 = zext i1 %tobool to i8
  store i8 %frombool2, ptr %big_endian_fb, align 2
  ret void
}