; Function Attrs: nounwind sspstrong uwtable
define internal void @vga_set_big_endian_fb(ptr noundef %obj, i1 noundef zeroext %value, ptr readnone captures(none) %errp) #0 {
entry:
  %frombool = zext i1 %value to i8
  %call.i = tail call ptr @object_dynamic_cast_assert(ptr noundef %obj, ptr noundef nonnull @.str.4, ptr noundef nonnull @.str.9, i32 noundef 10, ptr noundef nonnull @__func__.PCI_DEVICE) #4
  %call.i1 = tail call ptr @object_dynamic_cast_assert(ptr noundef %call.i, ptr noundef nonnull @.str.3, ptr noundef nonnull @.str.18, i32 noundef 58, ptr noundef nonnull @__func__.PCI_VGA) #4
  %big_endian_fb = getelementptr inbounds nuw i8, ptr %call.i1, i64 5338
  store i8 %frombool, ptr %big_endian_fb, align 2
  ret void
}